target datalayout = "e-m:e-p270:32:32-p271:32:32-p272:64:64-i64:64-i128:128-f80:128-n8:16:32:64-S128"
target triple = "x86_64-pc-linux-gnu"

%struct.XLogRecordBuffer = type { i64, i64, ptr }
%struct.LogicalDecodingContext = type { ptr, ptr, ptr, ptr, ptr, i8, %struct.OutputPluginCallbacks, %struct.OutputPluginOptions, ptr, ptr, ptr, ptr, ptr, ptr, ptr, i8, i8, i8, i8, i8, i64, i32, i8, i8 }
%struct.OutputPluginCallbacks = type { ptr, ptr, ptr, ptr, ptr, ptr, ptr, ptr, ptr, ptr, ptr, ptr, ptr, ptr, ptr, ptr, ptr, ptr, ptr, ptr, ptr }
%struct.OutputPluginOptions = type { i32, i8 }
%struct.XLogReaderState = type { %struct.XLogReaderRoutine, i64, ptr, i64, i64, i64, i64, i64, i64, i64, i64, ptr, ptr, i64, i8, ptr, ptr, ptr, ptr, ptr, i32, %struct.WALSegmentContext, %struct.WALOpenSegment, i32, i64, i32, i64, i32, i64, i32, ptr, i32, ptr, i8, i8 }
%struct.XLogReaderRoutine = type { ptr, ptr, ptr }
%struct.WALSegmentContext = type { [1024 x i8], i32 }
%struct.WALOpenSegment = type { i32, i64, i32 }
%struct.DecodedXLogRecord = type { i64, i8, ptr, i64, i64, %struct.XLogRecord, i16, i32, ptr, i32, i32, [0 x %struct.DecodedBkpBlock] }
%struct.XLogRecord = type { i32, i32, i64, i8, i8, i32 }
%struct.DecodedBkpBlock = type { i8, %struct.RelFileLocator, i32, i32, i32, i8, i8, i8, ptr, i16, i16, i16, i8, i8, ptr, i16, i16 }
%struct.RelFileLocator = type { i32, i32, i32 }
%struct.ReplicationSlot = type { i8, i8, i32, i8, i8, i32, i32, %struct.ReplicationSlotPersistentData, %struct.LWLock, %struct.ConditionVariable, i32, i64, i64, i64, i64, i64 }
%struct.ReplicationSlotPersistentData = type { %struct.nameData, i32, i32, i32, i32, i64, i32, i64, i64, i8, %struct.nameData, i8, i8 }
%struct.nameData = type { [64 x i8] }
%struct.LWLock = type { i16, %struct.pg_atomic_uint32, %struct.proclist_head }
%struct.pg_atomic_uint32 = type { i32 }
%struct.proclist_head = type { i32, i32 }
%struct.ConditionVariable = type { i8, %struct.proclist_head }
%struct.ReorderBufferChange = type { i64, i32, ptr, i16, %union.anon, %struct.dlist_node }
%union.anon = type { %struct.anon }
%struct.anon = type { %struct.RelFileLocator, i8, ptr, ptr }
%struct.dlist_node = type { ptr, ptr }
%struct.HeapTupleData = type { i32, %struct.ItemPointerData, i32, ptr }
%struct.ItemPointerData = type { %struct.BlockIdData, i16 }
%struct.BlockIdData = type { i16, i16 }
%struct.HeapTupleHeaderData = type { %union.anon.4, %struct.ItemPointerData, i16, i16, i8, [0 x i8] }
%union.anon.4 = type { %struct.HeapTupleFields }
%struct.HeapTupleFields = type { i32, i32, %union.anon.5 }
%union.anon.5 = type { i32 }
%struct.xl_heap_insert = type { i16, i8 }
%struct.xl_heap_header = type { i16, i16, i8 }

; Function Attrs: inlinehint nounwind uwtable
define internal void @BlockIdSet(ptr noundef %0, i32 noundef %1) #3 {
  %3 = alloca ptr, align 8
  %4 = alloca i32, align 4
  store ptr %0, ptr %3, align 8
  store i32 %1, ptr %4, align 4
  %5 = load i32, ptr %4, align 4
  %6 = lshr i32 %5, 16
  %7 = trunc i32 %6 to i16
  %8 = load ptr, ptr %3, align 8
  %9 = getelementptr inbounds nuw %struct.BlockIdData, ptr %8, i32 0, i32 0
  store i16 %7, ptr %9, align 2
  %10 = load i32, ptr %4, align 4
  %11 = and i32 %10, 65535
  %12 = trunc i32 %11 to i16
  %13 = load ptr, ptr %3, align 8
  %14 = getelementptr inbounds nuw %struct.BlockIdData, ptr %13, i32 0, i32 1
  store i16 %12, ptr %14, align 2
  ret void
}

; Function Attrs: inlinehint nounwind uwtable
define internal void @ItemPointerSetInvalid(ptr noundef %0) #3 {
  %2 = alloca ptr, align 8
  store ptr %0, ptr %2, align 8
  %3 = load ptr, ptr %2, align 8
  %4 = getelementptr inbounds nuw %struct.ItemPointerData, ptr %3, i32 0, i32 0
  call void @BlockIdSet(ptr noundef %4, i32 noundef -1)
  %5 = load ptr, ptr %2, align 8
  %6 = getelementptr inbounds nuw %struct.ItemPointerData, ptr %5, i32 0, i32 1
  store i16 0, ptr %6, align 2
  ret void
}

; Function Attrs: nounwind uwtable
define internal void @DecodeXLogTuple(ptr noundef %0, i64 noundef %1, ptr noundef %2) #0 {
  %4 = alloca ptr, align 8
  %5 = alloca i64, align 8
  %6 = alloca ptr, align 8
  %7 = alloca %struct.xl_heap_header, align 2
  %8 = alloca i32, align 4
  %9 = alloca ptr, align 8
  store ptr %0, ptr %4, align 8
  store i64 %1, ptr %5, align 8
  store ptr %2, ptr %6, align 8
  call void @llvm.lifetime.start.p0(i64 6, ptr %7) #8
  call void @llvm.lifetime.start.p0(i64 4, ptr %8) #8
  %10 = load i64, ptr %5, align 8
  %11 = sub i64 %10, 5
  %12 = trunc i64 %11 to i32
  store i32 %12, ptr %8, align 4
  call void @llvm.lifetime.start.p0(i64 8, ptr %9) #8
  %13 = load i32, ptr %8, align 4
  %14 = sext i32 %13 to i64
  %15 = add i64 %14, 23
  %16 = trunc i64 %15 to i32
  %17 = load ptr, ptr %6, align 8
  %18 = getelementptr inbounds nuw %struct.HeapTupleData, ptr %17, i32 0, i32 0
  store i32 %16, ptr %18, align 8
  %19 = load ptr, ptr %6, align 8
  %20 = getelementptr inbounds nuw %struct.HeapTupleData, ptr %19, i32 0, i32 3
  %21 = load ptr, ptr %20, align 8
  store ptr %21, ptr %9, align 8
  %22 = load ptr, ptr %6, align 8
  %23 = getelementptr inbounds nuw %struct.HeapTupleData, ptr %22, i32 0, i32 1
  call void @ItemPointerSetInvalid(ptr noundef %23)
  %24 = load ptr, ptr %6, align 8
  %25 = getelementptr inbounds nuw %struct.HeapTupleData, ptr %24, i32 0, i32 2
  store i32 0, ptr %25, align 4
  %26 = load ptr, ptr %4, align 8
  call void @llvm.memcpy.p0.p0.i64(ptr align 2 %7, ptr align 1 %26, i64 5, i1 false)
  %27 = load ptr, ptr %9, align 8
  call void @llvm.memset.p0.i64(ptr align 4 %27, i8 0, i64 23, i1 false)
  %28 = load ptr, ptr %6, align 8
  %29 = getelementptr inbounds nuw %struct.HeapTupleData, ptr %28, i32 0, i32 3
  %30 = load ptr, ptr %29, align 8
  %31 = getelementptr inbounds nuw i8, ptr %30, i64 23
  %32 = load ptr, ptr %4, align 8
  %33 = getelementptr inbounds nuw i8, ptr %32, i64 5
  %34 = load i32, ptr %8, align 4
  %35 = sext i32 %34 to i64
  call void @llvm.memcpy.p0.p0.i64(ptr align 1 %31, ptr align 1 %33, i64 %35, i1 false)
  %36 = getelementptr inbounds nuw %struct.xl_heap_header, ptr %7, i32 0, i32 1
  %37 = load i16, ptr %36, align 2
  %38 = load ptr, ptr %9, align 8
  %39 = getelementptr inbounds nuw %struct.HeapTupleHeaderData, ptr %38, i32 0, i32 3
  store i16 %37, ptr %39, align 4
  %40 = getelementptr inbounds nuw %struct.xl_heap_header, ptr %7, i32 0, i32 0
  %41 = load i16, ptr %40, align 2
  %42 = load ptr, ptr %9, align 8
  %43 = getelementptr inbounds nuw %struct.HeapTupleHeaderData, ptr %42, i32 0, i32 2
  store i16 %41, ptr %43, align 2
  %44 = getelementptr inbounds nuw %struct.xl_heap_header, ptr %7, i32 0, i32 2
  %45 = load i8, ptr %44, align 2
  %46 = load ptr, ptr %9, align 8
  %47 = getelementptr inbounds nuw %struct.HeapTupleHeaderData, ptr %46, i32 0, i32 4
  store i8 %45, ptr %47, align 2
  call void @llvm.lifetime.end.p0(i64 8, ptr %9) #8
  call void @llvm.lifetime.end.p0(i64 4, ptr %8) #8
  call void @llvm.lifetime.end.p0(i64 6, ptr %7) #8
  ret void
}

; Function Attrs: inlinehint nounwind uwtable
define internal zeroext i1 @FilterByOrigin(ptr noundef %0, i16 noundef zeroext %1) #3 {
  %3 = alloca i1, align 1
  %4 = alloca ptr, align 8
  %5 = alloca i16, align 2
  store ptr %0, ptr %4, align 8
  store i16 %1, ptr %5, align 2
  %6 = load ptr, ptr %4, align 8
  %7 = getelementptr inbounds nuw %struct.LogicalDecodingContext, ptr %6, i32 0, i32 6
  %8 = getelementptr inbounds nuw %struct.OutputPluginCallbacks, ptr %7, i32 0, i32 6
  %9 = load ptr, ptr %8, align 8
  %10 = icmp eq ptr %9, null
  br i1 %10, label %11, label %12

11:                                               ; preds = %2
  store i1 false, ptr %3, align 1
  br label %16

12:                                               ; preds = %2
  %13 = load ptr, ptr %4, align 8
  %14 = load i16, ptr %5, align 2
  %15 = call zeroext i1 @filter_by_origin_cb_wrapper(ptr noundef %13, i16 noundef zeroext %14)
  store i1 %15, ptr %3, align 1
  br label %16

16:                                               ; preds = %12, %11
  %17 = load i1, ptr %3, align 1
  ret i1 %17
}

; Function Attrs: nounwind uwtable
define internal void @DecodeInsert(ptr noundef %0, ptr noundef %1) #0 {
  %3 = alloca ptr, align 8
  %4 = alloca ptr, align 8
  %5 = alloca i64, align 8
  %6 = alloca ptr, align 8
  %7 = alloca i64, align 8
  %8 = alloca ptr, align 8
  %9 = alloca ptr, align 8
  %10 = alloca ptr, align 8
  %11 = alloca %struct.RelFileLocator, align 4
  %12 = alloca i32, align 4
  store ptr %0, ptr %3, align 8
  store ptr %1, ptr %4, align 8
  call void @llvm.lifetime.start.p0(i64 8, ptr %5) #8
  call void @llvm.lifetime.start.p0(i64 8, ptr %6) #8
  call void @llvm.lifetime.start.p0(i64 8, ptr %7) #8
  call void @llvm.lifetime.start.p0(i64 8, ptr %8) #8
  %13 = load ptr, ptr %4, align 8
  %14 = getelementptr inbounds nuw %struct.XLogRecordBuffer, ptr %13, i32 0, i32 2
  %15 = load ptr, ptr %14, align 8
  store ptr %15, ptr %8, align 8
  call void @llvm.lifetime.start.p0(i64 8, ptr %9) #8
  call void @llvm.lifetime.start.p0(i64 8, ptr %10) #8
  call void @llvm.lifetime.start.p0(i64 12, ptr %11) #8
  %16 = load ptr, ptr %8, align 8
  %17 = getelementptr inbounds nuw %struct.XLogReaderState, ptr %16, i32 0, i32 11
  %18 = load ptr, ptr %17, align 8
  %19 = getelementptr inbounds nuw %struct.DecodedXLogRecord, ptr %18, i32 0, i32 8
  %20 = load ptr, ptr %19, align 8
  store ptr %20, ptr %9, align 8
  %21 = load ptr, ptr %9, align 8
  %22 = getelementptr inbounds nuw %struct.xl_heap_insert, ptr %21, i32 0, i32 1
  %23 = load i8, ptr %22, align 2
  %24 = zext i8 %23 to i32
  %25 = and i32 %24, 8
  %26 = icmp ne i32 %25, 0
  br i1 %26, label %28, label %27

27:                                               ; preds = %2
  store i32 1, ptr %12, align 4
  br label %117

28:                                               ; preds = %2
  %29 = load ptr, ptr %8, align 8
  call void @XLogRecGetBlockTag(ptr noundef %29, i8 noundef zeroext 0, ptr noundef %11, ptr noundef null, ptr noundef null)
  %30 = getelementptr inbounds nuw %struct.RelFileLocator, ptr %11, i32 0, i32 1
  %31 = load i32, ptr %30, align 4
  %32 = load ptr, ptr %3, align 8
  %33 = getelementptr inbounds nuw %struct.LogicalDecodingContext, ptr %32, i32 0, i32 1
  %34 = load ptr, ptr %33, align 8
  %35 = getelementptr inbounds nuw %struct.ReplicationSlot, ptr %34, i32 0, i32 7
  %36 = getelementptr inbounds nuw %struct.ReplicationSlotPersistentData, ptr %35, i32 0, i32 1
  %37 = load i32, ptr %36, align 8
  %38 = icmp ne i32 %31, %37
  br i1 %38, label %39, label %40

39:                                               ; preds = %28
  store i32 1, ptr %12, align 4
  br label %117

40:                                               ; preds = %28
  %41 = load ptr, ptr %3, align 8
  %42 = load ptr, ptr %8, align 8
  %43 = getelementptr inbounds nuw %struct.XLogReaderState, ptr %42, i32 0, i32 11
  %44 = load ptr, ptr %43, align 8
  %45 = getelementptr inbounds nuw %struct.DecodedXLogRecord, ptr %44, i32 0, i32 6
  %46 = load i16, ptr %45, align 8
  %47 = call zeroext i1 @FilterByOrigin(ptr noundef %41, i16 noundef zeroext %46)
  br i1 %47, label %48, label %49

48:                                               ; preds = %40
  store i32 1, ptr %12, align 4
  br label %117

49:                                               ; preds = %40
  %50 = load ptr, ptr %3, align 8
  %51 = getelementptr inbounds nuw %struct.LogicalDecodingContext, ptr %50, i32 0, i32 3
  %52 = load ptr, ptr %51, align 8
  %53 = call ptr @ReorderBufferGetChange(ptr noundef %52)
  store ptr %53, ptr %10, align 8
  %54 = load ptr, ptr %9, align 8
  %55 = getelementptr inbounds nuw %struct.xl_heap_insert, ptr %54, i32 0, i32 1
  %56 = load i8, ptr %55, align 2
  %57 = zext i8 %56 to i32
  %58 = and i32 %57, 4
  %59 = icmp ne i32 %58, 0
  br i1 %59, label %63, label %60

60:                                               ; preds = %49
  %61 = load ptr, ptr %10, align 8
  %62 = getelementptr inbounds nuw %struct.ReorderBufferChange, ptr %61, i32 0, i32 1
  store i32 0, ptr %62, align 8
  br label %66

63:                                               ; preds = %49
  %64 = load ptr, ptr %10, align 8
  %65 = getelementptr inbounds nuw %struct.ReorderBufferChange, ptr %64, i32 0, i32 1
  store i32 8, ptr %65, align 8
  br label %66

66:                                               ; preds = %63, %60
  %67 = load ptr, ptr %8, align 8
  %68 = getelementptr inbounds nuw %struct.XLogReaderState, ptr %67, i32 0, i32 11
  %69 = load ptr, ptr %68, align 8
  %70 = getelementptr inbounds nuw %struct.DecodedXLogRecord, ptr %69, i32 0, i32 6
  %71 = load i16, ptr %70, align 8
  %72 = load ptr, ptr %10, align 8
  %73 = getelementptr inbounds nuw %struct.ReorderBufferChange, ptr %72, i32 0, i32 3
  store i16 %71, ptr %73, align 8
  %74 = load ptr, ptr %10, align 8
  %75 = getelementptr inbounds nuw %struct.ReorderBufferChange, ptr %74, i32 0, i32 4
  %76 = getelementptr inbounds nuw %struct.anon, ptr %75, i32 0, i32 0
  call void @llvm.memcpy.p0.p0.i64(ptr align 8 %76, ptr align 4 %11, i64 12, i1 false)
  %77 = load ptr, ptr %8, align 8
  %78 = call ptr @XLogRecGetBlockData(ptr noundef %77, i8 noundef zeroext 0, ptr noundef %5)
  store ptr %78, ptr %6, align 8
  %79 = load i64, ptr %5, align 8
  %80 = sub i64 %79, 5
  store i64 %80, ptr %7, align 8
  %81 = load ptr, ptr %3, align 8
  %82 = getelementptr inbounds nuw %struct.LogicalDecodingContext, ptr %81, i32 0, i32 3
  %83 = load ptr, ptr %82, align 8
  %84 = load i64, ptr %7, align 8
  %85 = call ptr @ReorderBufferGetTupleBuf(ptr noundef %83, i64 noundef %84)
  %86 = load ptr, ptr %10, align 8
  %87 = getelementptr inbounds nuw %struct.ReorderBufferChange, ptr %86, i32 0, i32 4
  %88 = getelementptr inbounds nuw %struct.anon, ptr %87, i32 0, i32 3
  store ptr %85, ptr %88, align 8
  %89 = load ptr, ptr %6, align 8
  %90 = load i64, ptr %5, align 8
  %91 = load ptr, ptr %10, align 8
  %92 = getelementptr inbounds nuw %struct.ReorderBufferChange, ptr %91, i32 0, i32 4
  %93 = getelementptr inbounds nuw %struct.anon, ptr %92, i32 0, i32 3
  %94 = load ptr, ptr %93, align 8
  call void @DecodeXLogTuple(ptr noundef %89, i64 noundef %90, ptr noundef %94)
  %95 = load ptr, ptr %10, align 8
  %96 = getelementptr inbounds nuw %struct.ReorderBufferChange, ptr %95, i32 0, i32 4
  %97 = getelementptr inbounds nuw %struct.anon, ptr %96, i32 0, i32 1
  store i8 1, ptr %97, align 4
  %98 = load ptr, ptr %3, align 8
  %99 = getelementptr inbounds nuw %struct.LogicalDecodingContext, ptr %98, i32 0, i32 3
  %100 = load ptr, ptr %99, align 8
  %101 = load ptr, ptr %8, align 8
  %102 = getelementptr inbounds nuw %struct.XLogReaderState, ptr %101, i32 0, i32 11
  %103 = load ptr, ptr %102, align 8
  %104 = getelementptr inbounds nuw %struct.DecodedXLogRecord, ptr %103, i32 0, i32 5
  %105 = getelementptr inbounds nuw %struct.XLogRecord, ptr %104, i32 0, i32 1
  %106 = load i32, ptr %105, align 4
  %107 = load ptr, ptr %4, align 8
  %108 = getelementptr inbounds nuw %struct.XLogRecordBuffer, ptr %107, i32 0, i32 0
  %109 = load i64, ptr %108, align 8
  %110 = load ptr, ptr %10, align 8
  %111 = load ptr, ptr %9, align 8
  %112 = getelementptr inbounds nuw %struct.xl_heap_insert, ptr %111, i32 0, i32 1
  %113 = load i8, ptr %112, align 2
  %114 = zext i8 %113 to i32
  %115 = and i32 %114, 16
  %116 = icmp ne i32 %115, 0
  call void @ReorderBufferQueueChange(ptr noundef %100, i32 noundef %106, i64 noundef %109, ptr noundef %110, i1 noundef zeroext %116)
  store i32 0, ptr %12, align 4
  br label %117

117:                                              ; preds = %66, %48, %39, %27
  call void @llvm.lifetime.end.p0(i64 12, ptr %11) #8
  call void @llvm.lifetime.end.p0(i64 8, ptr %10) #8
  call void @llvm.lifetime.end.p0(i64 8, ptr %9) #8
  call void @llvm.lifetime.end.p0(i64 8, ptr %8) #8
  call void @llvm.lifetime.end.p0(i64 8, ptr %7) #8
  call void @llvm.lifetime.end.p0(i64 8, ptr %6) #8
  call void @llvm.lifetime.end.p0(i64 8, ptr %5) #8
  %118 = load i32, ptr %12, align 4
  switch i32 %118, label %120 [
    i32 0, label %119
    i32 1, label %119
  ]

119:                                              ; preds = %117, %117
  ret void

120:                                              ; preds = %117
  unreachable
}