; Function Attrs: nounwind uwtable
define internal fastcc void @DecodeInsert(ptr noundef %0, ptr noundef readonly captures(none) %1) unnamed_addr #0 {
  %3 = alloca i64, align 8
  %4 = alloca %struct.RelFileLocator, align 4
  call void @llvm.lifetime.start.p0(i64 8, ptr nonnull %3) #7
  %5 = getelementptr inbounds nuw i8, ptr %1, i64 16
  %6 = load ptr, ptr %5, align 8
  call void @llvm.lifetime.start.p0(i64 12, ptr nonnull %4) #7
  %7 = getelementptr inbounds nuw i8, ptr %6, i64 104
  %8 = load ptr, ptr %7, align 8
  %9 = getelementptr inbounds nuw i8, ptr %8, i64 72
  %10 = load ptr, ptr %9, align 8
  %11 = getelementptr inbounds nuw i8, ptr %10, i64 2
  %12 = load i8, ptr %11, align 2
  %13 = and i8 %12, 8
  %.not = icmp eq i8 %13, 0
  br i1 %.not, label %73, label %14

14:                                               ; preds = %2
  call void @XLogRecGetBlockTag(ptr noundef nonnull %6, i8 noundef zeroext 0, ptr noundef nonnull %4, ptr noundef null, ptr noundef null) #7
  %15 = getelementptr inbounds nuw i8, ptr %4, i64 4
  %16 = load i32, ptr %15, align 4
  %17 = getelementptr inbounds nuw i8, ptr %0, i64 8
  %18 = load ptr, ptr %17, align 8
  %19 = getelementptr inbounds nuw i8, ptr %18, i64 88
  %20 = load i32, ptr %19, align 8
  %.not25 = icmp eq i32 %16, %20
  br i1 %.not25, label %21, label %73

21:                                               ; preds = %14
  %22 = getelementptr inbounds nuw i8, ptr %0, i64 96
  %23 = load ptr, ptr %22, align 8
  %24 = icmp eq ptr %23, null
  br i1 %24, label %FilterByOrigin.exit.thread, label %FilterByOrigin.exit

FilterByOrigin.exit:                              ; preds = %21
  %25 = load ptr, ptr %7, align 8
  %26 = getelementptr inbounds nuw i8, ptr %25, i64 64
  %27 = load i16, ptr %26, align 8
  %28 = call zeroext i1 @filter_by_origin_cb_wrapper(ptr noundef nonnull %0, i16 noundef zeroext %27) #7
  br i1 %28, label %73, label %FilterByOrigin.exit.thread

FilterByOrigin.exit.thread:                       ; preds = %21, %FilterByOrigin.exit
  %29 = getelementptr inbounds nuw i8, ptr %0, i64 24
  %30 = load ptr, ptr %29, align 8
  %31 = call ptr @ReorderBufferGetChange(ptr noundef %30) #7
  %32 = load i8, ptr %11, align 2
  %33 = shl i8 %32, 1
  %34 = and i8 %33, 8
  %spec.select = zext nneg i8 %34 to i32
  %35 = getelementptr inbounds nuw i8, ptr %31, i64 8
  store i32 %spec.select, ptr %35, align 8
  %36 = load ptr, ptr %7, align 8
  %37 = getelementptr inbounds nuw i8, ptr %36, i64 64
  %38 = load i16, ptr %37, align 8
  %39 = getelementptr inbounds nuw i8, ptr %31, i64 24
  store i16 %38, ptr %39, align 8
  %40 = getelementptr inbounds nuw i8, ptr %31, i64 32
  call void @llvm.memcpy.p0.p0.i64(ptr noundef nonnull align 8 dereferenceable(12) %40, ptr noundef nonnull align 4 dereferenceable(12) %4, i64 12, i1 false)
  %41 = call ptr @XLogRecGetBlockData(ptr noundef nonnull %6, i8 noundef zeroext 0, ptr noundef nonnull %3) #7
  %42 = load i64, ptr %3, align 8
  %43 = add i64 %42, -5
  %44 = load ptr, ptr %29, align 8
  %45 = call ptr @ReorderBufferGetTupleBuf(ptr noundef %44, i64 noundef %43) #7
  %46 = getelementptr inbounds nuw i8, ptr %31, i64 56
  store ptr %45, ptr %46, align 8
  %47 = load i64, ptr %3, align 8
  %48 = shl i64 %47, 32
  %sext.i = add i64 %48, -21474836480
  %49 = ashr exact i64 %sext.i, 32
  %50 = trunc nsw i64 %49 to i32
  %51 = add i32 %50, 23
  store i32 %51, ptr %45, align 8
  %52 = getelementptr inbounds nuw i8, ptr %45, i64 16
  %53 = load ptr, ptr %52, align 8
  %54 = getelementptr inbounds nuw i8, ptr %45, i64 4
  store i16 -1, ptr %54, align 2
  %55 = getelementptr inbounds nuw i8, ptr %45, i64 6
  store i16 -1, ptr %55, align 2
  %56 = getelementptr inbounds nuw i8, ptr %45, i64 8
  store i16 0, ptr %56, align 2
  %57 = getelementptr inbounds nuw i8, ptr %45, i64 12
  store i32 0, ptr %57, align 4
  %.sroa.0.0.copyload.i = load i16, ptr %41, align 1
  %.sroa.4.0..sroa_idx.i = getelementptr inbounds nuw i8, ptr %41, i64 2
  %.sroa.4.0.copyload.i = load i16, ptr %.sroa.4.0..sroa_idx.i, align 1
  %.sroa.5.0..sroa_idx.i = getelementptr inbounds nuw i8, ptr %41, i64 4
  %.sroa.5.0.copyload.i = load i8, ptr %.sroa.5.0..sroa_idx.i, align 1
  call void @llvm.memset.p0.i64(ptr noundef nonnull align 4 dereferenceable(23) %53, i8 0, i64 23, i1 false)
  %58 = load ptr, ptr %52, align 8
  %59 = getelementptr inbounds nuw i8, ptr %58, i64 23
  %60 = getelementptr inbounds nuw i8, ptr %41, i64 5
  call void @llvm.memcpy.p0.p0.i64(ptr nonnull align 1 %59, ptr nonnull readonly align 1 %60, i64 %49, i1 false)
  %61 = getelementptr inbounds nuw i8, ptr %53, i64 20
  store i16 %.sroa.4.0.copyload.i, ptr %61, align 4
  %62 = getelementptr inbounds nuw i8, ptr %53, i64 18
  store i16 %.sroa.0.0.copyload.i, ptr %62, align 2
  %63 = getelementptr inbounds nuw i8, ptr %53, i64 22
  store i8 %.sroa.5.0.copyload.i, ptr %63, align 2
  %64 = getelementptr inbounds nuw i8, ptr %31, i64 44
  store i8 1, ptr %64, align 4
  %65 = load ptr, ptr %29, align 8
  %66 = load ptr, ptr %7, align 8
  %67 = getelementptr inbounds nuw i8, ptr %66, i64 44
  %68 = load i32, ptr %67, align 4
  %69 = load i64, ptr %1, align 8
  %70 = load i8, ptr %11, align 2
  %71 = and i8 %70, 16
  %72 = icmp ne i8 %71, 0
  call void @ReorderBufferQueueChange(ptr noundef %65, i32 noundef %68, i64 noundef %69, ptr noundef nonnull %31, i1 noundef zeroext %72) #7
  br label %73

73:                                               ; preds = %FilterByOrigin.exit, %14, %2, %FilterByOrigin.exit.thread
  call void @llvm.lifetime.end.p0(i64 12, ptr nonnull %4) #7
  call void @llvm.lifetime.end.p0(i64 8, ptr nonnull %3) #7
  ret void
}